; Function Attrs: nounwind uwtable
define dso_local ptr @strvec_pushf(ptr noundef captures(none) %0, ptr noundef %1, ...) local_unnamed_addr #3 {
  %3 = alloca [1 x %struct.__va_list_tag], align 16
  %4 = alloca %struct.strbuf, align 8
  call void @llvm.lifetime.start.p0(i64 24, ptr nonnull %3) #11
  call void @llvm.lifetime.start.p0(i64 24, ptr nonnull %4) #11
  call void @llvm.memcpy.p0.p0.i64(ptr noundef nonnull align 8 dereferenceable(24) %4, ptr noundef nonnull align 8 dereferenceable(24) @__const.strvec_pushf.v, i64 24, i1 false)
  call void @llvm.va_start.p0(ptr nonnull %3)
  call void @strbuf_vaddf(ptr noundef nonnull %4, ptr noundef %1, ptr noundef nonnull %3) #11
  call void @llvm.va_end.p0(ptr nonnull %3)
  %5 = call ptr @strbuf_detach(ptr noundef nonnull %4, ptr noundef null) #11
  %6 = load ptr, ptr %0, align 8, !tbaa !4
  %7 = icmp eq ptr %6, @empty_strvec
  br i1 %7, label %8, label %9

8:                                                ; preds = %2
  store ptr null, ptr %0, align 8, !tbaa !4
  br label %9

9:                                                ; preds = %8, %2
  %10 = phi ptr [ %6, %2 ], [ null, %8 ]
  %11 = getelementptr inbounds nuw i8, ptr %0, i64 8
  %12 = load i64, ptr %11, align 8, !tbaa !11
  %13 = add i64 %12, 2
  %14 = getelementptr inbounds nuw i8, ptr %0, i64 16
  %15 = load i64, ptr %14, align 8, !tbaa !12
  %16 = icmp ugt i64 %13, %15
  br i1 %16, label %17, label %strvec_push_nodup.exit

17:                                               ; preds = %9
  %18 = mul i64 %15, 3
  %19 = add i64 %18, 48
  %20 = lshr i64 %19, 1
  %..i = call i64 @llvm.umax.i64(i64 %20, i64 %13)
  store i64 %..i, ptr %14, align 8, !tbaa !12
  %21 = icmp ugt i64 %..i, 2305843009213693951
  br i1 %21, label %22, label %st_mult.exit.i

22:                                               ; preds = %17
  call void (ptr, ...) @die(ptr noundef nonnull @.str.3, i64 noundef 8, i64 noundef %..i) #10
  unreachable

st_mult.exit.i:                                   ; preds = %17
  %23 = shl nuw i64 %..i, 3
  %24 = call ptr @xrealloc(ptr noundef %10, i64 noundef %23) #11
  store ptr %24, ptr %0, align 8, !tbaa !4
  %.pre.i = load i64, ptr %11, align 8, !tbaa !11
  br label %strvec_push_nodup.exit

strvec_push_nodup.exit:                           ; preds = %9, %st_mult.exit.i
  %25 = phi i64 [ %12, %9 ], [ %.pre.i, %st_mult.exit.i ]
  %26 = phi ptr [ %10, %9 ], [ %24, %st_mult.exit.i ]
  %27 = add i64 %25, 1
  store i64 %27, ptr %11, align 8, !tbaa !11
  %28 = getelementptr inbounds nuw ptr, ptr %26, i64 %25
  store ptr %5, ptr %28, align 8, !tbaa !13
  %29 = getelementptr ptr, ptr %26, i64 %27
  store ptr null, ptr %29, align 8, !tbaa !13
  call void @llvm.lifetime.end.p0(i64 24, ptr nonnull %4) #11
  call void @llvm.lifetime.end.p0(i64 24, ptr nonnull %3) #11
  ret ptr %5
}